; ModuleID = 'source-C-CXX/52/1150.c'
source_filename = "source-C-CXX/52/1150.c"
target datalayout = "e-m:e-p270:32:32-p271:32:32-p272:64:64-i64:64-f80:128-n8:16:32:64-S128"
target triple = "x86_64-pc-linux-gnu"

@.str = private unnamed_addr constant [3 x i8] c"%d\00", align 1
@.str.1 = private unnamed_addr constant [4 x i8] c"%d,\00", align 1

; Function Attrs: nofree nounwind sspstrong uwtable
define dso_local i32 @main() local_unnamed_addr #0 {
  %1 = alloca [300 x i32], align 16
  %2 = alloca i32, align 4
  %3 = alloca [300 x i32], align 16
  %4 = bitcast [300 x i32]* %1 to i8*
  call void @llvm.lifetime.start.p0i8(i64 1200, i8* nonnull %4) #3
  %5 = bitcast i32* %2 to i8*
  call void @llvm.lifetime.start.p0i8(i64 4, i8* nonnull %5) #3
  %6 = bitcast [300 x i32]* %3 to i8*
  call void @llvm.lifetime.start.p0i8(i64 1200, i8* nonnull %6) #3
  %7 = call i32 (i8*, ...) @__isoc99_scanf(i8* getelementptr inbounds ([3 x i8], [3 x i8]* @.str, i64 0, i64 0), i32* nonnull %2)
  %8 = load i32, i32* %2, align 4, !tbaa !5
  %9 = icmp sgt i32 %8, 0
  br i1 %9, label %15, label %49

10:                                               ; preds = %37
  %11 = add i32 %30, -1
  %12 = icmp sgt i32 %30, 1
  br i1 %12, label %13, label %49

13:                                               ; preds = %10
  %14 = zext i32 %11 to i64
  br label %42

15:                                               ; preds = %0, %37
  %16 = phi i64 [ %38, %37 ], [ 0, %0 ]
  %17 = phi i32 [ %30, %37 ], [ 0, %0 ]
  %18 = getelementptr inbounds [300 x i32], [300 x i32]* %1, i64 0, i64 %16
  %19 = call i32 (i8*, ...) @__isoc99_scanf(i8* getelementptr inbounds ([3 x i8], [3 x i8]* @.str, i64 0, i64 0), i32* nonnull %18)
  %20 = load i32, i32* %18, align 4, !tbaa !5
  br label %21

21:                                               ; preds = %29, %15
  %22 = phi i64 [ %34, %29 ], [ 0, %15 ]
  %23 = phi i32 [ %30, %29 ], [ %17, %15 ]
  %24 = icmp eq i64 %22, %16
  br i1 %24, label %25, label %29

25:                                               ; preds = %21
  %26 = sext i32 %23 to i64
  %27 = getelementptr inbounds [300 x i32], [300 x i32]* %3, i64 0, i64 %26
  store i32 %20, i32* %27, align 4, !tbaa !5
  %28 = add nsw i32 %23, 1
  br label %29

29:                                               ; preds = %25, %21
  %30 = phi i32 [ %28, %25 ], [ %23, %21 ]
  %31 = getelementptr inbounds [300 x i32], [300 x i32]* %1, i64 0, i64 %22
  %32 = load i32, i32* %31, align 4, !tbaa !5
  %33 = icmp eq i32 %20, %32
  %34 = add nuw nsw i64 %22, 1
  %35 = icmp uge i64 %22, %16
  %36 = select i1 %33, i1 true, i1 %35
  br i1 %36, label %37, label %21, !llvm.loop !9

37:                                               ; preds = %29
  %38 = add nuw nsw i64 %16, 1
  %39 = load i32, i32* %2, align 4, !tbaa !5
  %40 = sext i32 %39 to i64
  %41 = icmp slt i64 %38, %40
  br i1 %41, label %15, label %10, !llvm.loop !11

42:                                               ; preds = %13, %42
  %43 = phi i64 [ 0, %13 ], [ %47, %42 ]
  %44 = getelementptr inbounds [300 x i32], [300 x i32]* %3, i64 0, i64 %43
  %45 = load i32, i32* %44, align 4, !tbaa !5
  %46 = call i32 (i8*, ...) @printf(i8* nonnull dereferenceable(1) getelementptr inbounds ([4 x i8], [4 x i8]* @.str.1, i64 0, i64 0), i32 %45)
  %47 = add nuw nsw i64 %43, 1
  %48 = icmp eq i64 %47, %14
  br i1 %48, label %49, label %42, !llvm.loop !12

49:                                               ; preds = %42, %0, %10
  %50 = phi i32 [ %11, %10 ], [ -1, %0 ], [ %11, %42 ]
  %51 = sext i32 %50 to i64
  %52 = getelementptr inbounds [300 x i32], [300 x i32]* %3, i64 0, i64 %51
  %53 = load i32, i32* %52, align 4, !tbaa !5
  %54 = call i32 (i8*, ...) @printf(i8* nonnull dereferenceable(1) getelementptr inbounds ([3 x i8], [3 x i8]* @.str, i64 0, i64 0), i32 %53)
  call void @llvm.lifetime.end.p0i8(i64 1200, i8* nonnull %6) #3
  call void @llvm.lifetime.end.p0i8(i64 4, i8* nonnull %5) #3
  call void @llvm.lifetime.end.p0i8(i64 1200, i8* nonnull %4) #3
  ret i32 0
}

; Function Attrs: argmemonly mustprogress nofree nosync nounwind willreturn
declare void @llvm.lifetime.start.p0i8(i64 immarg, i8* nocapture) #1

; Function Attrs: nofree nounwind
declare noundef i32 @__isoc99_scanf(i8* nocapture noundef readonly, ...) local_unnamed_addr #2

; Function Attrs: nofree nounwind
declare noundef i32 @printf(i8* nocapture noundef readonly, ...) local_unnamed_addr #2

; Function Attrs: argmemonly mustprogress nofree nosync nounwind willreturn
declare void @llvm.lifetime.end.p0i8(i64 immarg, i8* nocapture) #1


!llvm.module.flags = !{!0, !1, !2, !3}
!llvm.ident = !{!4}

!0 = !{i32 1, !"wchar_size", i32 4}
!1 = !{i32 7, !"PIC Level", i32 2}
!2 = !{i32 7, !"PIE Level", i32 2}
!3 = !{i32 7, !"uwtable", i32 1}
!4 = !{!"clang version 13.0.0"}
!5 = !{!6, !6, i64 0}
!6 = !{!"int", !7, i64 0}
!7 = !{!"omnipotent char", !8, i64 0}
!8 = !{!"Simple C/C++ TBAA"}
!9 = distinct !{!9, !10}
!10 = !{!"llvm.loop.mustprogress"}
!11 = distinct !{!11, !10}
!12 = distinct !{!12, !10}
